target datalayout = "e-m:e-p270:32:32-p271:32:32-p272:64:64-i64:64-i128:128-f80:128-n8:16:32:64-S128"
target triple = "x86_64-unknown-linux-gnu"

%class.rational = type { %class.mpq }
%class.mpq = type { %class.mpz, %class.mpz }
%class.mpz = type { i32, i8, ptr }
%"struct.nla::common" = type { ptr, %"class.nla::nex_creator" }
%"class.nla::nex_creator" = type { %class.ptr_vector, %"class.std::unordered_map", %"class.std::unordered_map.2", %class.svector, %"class.nla::nex_creator::mul_factory" }
%class.ptr_vector = type { %class.vector }
%class.vector = type { ptr }
%"class.std::unordered_map" = type { %"class.std::_Hashtable" }
%"class.std::_Hashtable" = type { ptr, i64, %"struct.std::__detail::_Hash_node_base", i64, %"struct.std::__detail::_Prime_rehash_policy", ptr }
%"struct.std::__detail::_Hash_node_base" = type { ptr }
%"struct.std::__detail::_Prime_rehash_policy" = type { float, i64 }
%"class.std::unordered_map.2" = type { %"class.std::_Hashtable.3" }
%"class.std::_Hashtable.3" = type { ptr, i64, %"struct.std::__detail::_Hash_node_base", i64, %"struct.std::__detail::_Prime_rehash_policy", ptr }
%class.svector = type { %class.vector.16 }
%class.vector.16 = type { ptr }
%"class.nla::nex_creator::mul_factory" = type { ptr, %class.rational, %class.vector.17 }
%class.vector.17 = type { ptr }
%"class.nla::mon_eq" = type { i32, %class.svector }

@_ZN8rational13g_mpq_managerE = external global ptr, align 8

; Function Attrs: mustprogress nounwind uwtable
define linkonce_odr hidden noundef i32 @_ZN11mpz_managerILb1EE4signERK3mpz(ptr noundef nonnull align 8 dereferenceable(16) %a) #4 comdat align 2 {
entry:
  %a.addr = alloca ptr, align 8
  store ptr %a, ptr %a.addr, align 8
  %0 = load ptr, ptr %a.addr, align 8
  %m_val = getelementptr inbounds %class.mpz, ptr %0, i32 0, i32 0
  %1 = load i32, ptr %m_val, align 8
  ret i32 %1
}

; Function Attrs: mustprogress nounwind uwtable
define linkonce_odr hidden noundef zeroext i1 @_ZN11mpz_managerILb1EE7is_zeroERK3mpz(ptr noundef nonnull align 8 dereferenceable(16) %a) #4 comdat align 2 {
entry:
  %a.addr = alloca ptr, align 8
  store ptr %a, ptr %a.addr, align 8
  %0 = load ptr, ptr %a.addr, align 8
  %call = call noundef i32 @_ZN11mpz_managerILb1EE4signERK3mpz(ptr noundef nonnull align 8 dereferenceable(16) %0)
  %cmp = icmp eq i32 %call, 0
  ret i1 %cmp
}

; Function Attrs: mustprogress uwtable
define linkonce_odr hidden noundef zeroext i1 @_ZN11mpq_managerILb1EE7is_zeroERK3mpz(ptr noundef nonnull align 8 dereferenceable(16) %a) #5 comdat align 2 {
entry:
  %a.addr = alloca ptr, align 8
  store ptr %a, ptr %a.addr, align 8
  %0 = load ptr, ptr %a.addr, align 8
  %call = call noundef zeroext i1 @_ZN11mpz_managerILb1EE7is_zeroERK3mpz(ptr noundef nonnull align 8 dereferenceable(16) %0)
  ret i1 %call
}

; Function Attrs: mustprogress uwtable
define linkonce_odr hidden void @_ZN11mpq_managerILb1EE3delEPS0_R3mpq(ptr noundef %m, ptr noundef nonnull align 8 dereferenceable(32) %a) #5 comdat align 2 {
entry:
  %m.addr = alloca ptr, align 8
  %a.addr = alloca ptr, align 8
  store ptr %m, ptr %m.addr, align 8
  store ptr %a, ptr %a.addr, align 8
  %0 = load ptr, ptr %m.addr, align 8
  %1 = load ptr, ptr %a.addr, align 8
  %m_num = getelementptr inbounds %class.mpq, ptr %1, i32 0, i32 0
  call void @_ZN11mpz_managerILb1EE3delEPS0_R3mpz(ptr noundef %0, ptr noundef nonnull align 8 dereferenceable(16) %m_num)
  %2 = load ptr, ptr %m.addr, align 8
  %3 = load ptr, ptr %a.addr, align 8
  %m_den = getelementptr inbounds %class.mpq, ptr %3, i32 0, i32 1
  call void @_ZN11mpz_managerILb1EE3delEPS0_R3mpz(ptr noundef %2, ptr noundef nonnull align 8 dereferenceable(16) %m_den)
  ret void
}

; Function Attrs: mustprogress uwtable
define linkonce_odr hidden noundef zeroext i1 @_ZN11mpq_managerILb1EE7is_zeroERK3mpq(ptr noundef nonnull align 8 dereferenceable(32) %a) #5 comdat align 2 {
entry:
  %a.addr = alloca ptr, align 8
  store ptr %a, ptr %a.addr, align 8
  %0 = load ptr, ptr %a.addr, align 8
  %m_num = getelementptr inbounds %class.mpq, ptr %0, i32 0, i32 0
  %call = call noundef zeroext i1 @_ZN11mpq_managerILb1EE7is_zeroERK3mpz(ptr noundef nonnull align 8 dereferenceable(16) %m_num)
  ret i1 %call
}

; Function Attrs: mustprogress nounwind uwtable
define linkonce_odr hidden noundef nonnull align 8 dereferenceable(728) ptr @_ZN8rational1mEv() #4 comdat align 2 {
entry:
  %0 = load ptr, ptr @_ZN8rational13g_mpq_managerE, align 8
  ret ptr %0
}

; Function Attrs: mustprogress nounwind uwtable
define linkonce_odr hidden noundef i32 @_ZNK6vectorIjLb0EjE4sizeEv(ptr noundef nonnull align 8 dereferenceable(8) %this) #4 comdat align 2 {
entry:
  %retval = alloca i32, align 4
  %this.addr = alloca ptr, align 8
  store ptr %this, ptr %this.addr, align 8
  %this1 = load ptr, ptr %this.addr, align 8
  %m_data = getelementptr inbounds %class.vector.16, ptr %this1, i32 0, i32 0
  %0 = load ptr, ptr %m_data, align 8
  %cmp = icmp eq ptr %0, null
  br i1 %cmp, label %if.then, label %if.end

if.then:                                          ; preds = %entry
  store i32 0, ptr %retval, align 4
  br label %return

if.end:                                           ; preds = %entry
  %m_data2 = getelementptr inbounds %class.vector.16, ptr %this1, i32 0, i32 0
  %1 = load ptr, ptr %m_data2, align 8
  %arrayidx = getelementptr inbounds i32, ptr %1, i64 -1
  %2 = load i32, ptr %arrayidx, align 4
  store i32 %2, ptr %retval, align 4
  br label %return

return:                                           ; preds = %if.end, %if.then
  %3 = load i32, ptr %retval, align 4
  ret i32 %3
}

; Function Attrs: mustprogress nounwind uwtable
define linkonce_odr hidden noundef zeroext i1 @_ZN3nla6is_setEj(i32 noundef %j) #4 comdat {
entry:
  %j.addr = alloca i32, align 4
  store i32 %j, ptr %j.addr, align 4
  %0 = load i32, ptr %j.addr, align 4
  %cmp = icmp ne i32 %0, -1
  ret i1 %cmp
}

; Function Attrs: mustprogress uwtable
define linkonce_odr hidden noundef nonnull align 8 dereferenceable(8) ptr @_ZN6vectorIjLb0EjE9push_backERKj(ptr noundef nonnull align 8 dereferenceable(8) %this, ptr noundef nonnull align 4 dereferenceable(4) %elem) #5 comdat align 2 {
entry:
  %this.addr = alloca ptr, align 8
  %elem.addr = alloca ptr, align 8
  store ptr %this, ptr %this.addr, align 8
  store ptr %elem, ptr %elem.addr, align 8
  %this1 = load ptr, ptr %this.addr, align 8
  %m_data = getelementptr inbounds %class.vector.16, ptr %this1, i32 0, i32 0
  %0 = load ptr, ptr %m_data, align 8
  %cmp = icmp eq ptr %0, null
  br i1 %cmp, label %if.then, label %lor.lhs.false

lor.lhs.false:                                    ; preds = %entry
  %m_data2 = getelementptr inbounds %class.vector.16, ptr %this1, i32 0, i32 0
  %1 = load ptr, ptr %m_data2, align 8
  %arrayidx = getelementptr inbounds i32, ptr %1, i64 -1
  %2 = load i32, ptr %arrayidx, align 4
  %m_data3 = getelementptr inbounds %class.vector.16, ptr %this1, i32 0, i32 0
  %3 = load ptr, ptr %m_data3, align 8
  %arrayidx4 = getelementptr inbounds i32, ptr %3, i64 -2
  %4 = load i32, ptr %arrayidx4, align 4
  %cmp5 = icmp eq i32 %2, %4
  br i1 %cmp5, label %if.then, label %if.end

if.then:                                          ; preds = %lor.lhs.false, %entry
  call void @_ZN6vectorIjLb0EjE13expand_vectorEv(ptr noundef nonnull align 8 dereferenceable(8) %this1)
  br label %if.end

if.end:                                           ; preds = %if.then, %lor.lhs.false
  %m_data6 = getelementptr inbounds %class.vector.16, ptr %this1, i32 0, i32 0
  %5 = load ptr, ptr %m_data6, align 8
  %m_data7 = getelementptr inbounds %class.vector.16, ptr %this1, i32 0, i32 0
  %6 = load ptr, ptr %m_data7, align 8
  %arrayidx8 = getelementptr inbounds i32, ptr %6, i64 -1
  %7 = load i32, ptr %arrayidx8, align 4
  %idx.ext = zext i32 %7 to i64
  %add.ptr = getelementptr inbounds i32, ptr %5, i64 %idx.ext
  %8 = load ptr, ptr %elem.addr, align 8
  %9 = load i32, ptr %8, align 4
  store i32 %9, ptr %add.ptr, align 4
  %m_data9 = getelementptr inbounds %class.vector.16, ptr %this1, i32 0, i32 0
  %10 = load ptr, ptr %m_data9, align 8
  %arrayidx10 = getelementptr inbounds i32, ptr %10, i64 -1
  %11 = load i32, ptr %arrayidx10, align 4
  %inc = add i32 %11, 1
  store i32 %inc, ptr %arrayidx10, align 4
  ret ptr %this1
}

; Function Attrs: mustprogress nounwind uwtable
define linkonce_odr hidden noundef nonnull align 8 dereferenceable(4720) ptr @_ZNK3nla6common1cEv(ptr noundef nonnull align 8 dereferenceable(184) %this) #4 comdat align 2 {
entry:
  %this.addr = alloca ptr, align 8
  store ptr %this, ptr %this.addr, align 8
  %this1 = load ptr, ptr %this.addr, align 8
  %m_core = getelementptr inbounds %"struct.nla::common", ptr %this1, i32 0, i32 0
  %0 = load ptr, ptr %m_core, align 8
  ret ptr %0
}

; Function Attrs: mustprogress nounwind uwtable
define linkonce_odr hidden void @_ZN8rationalD2Ev(ptr noundef nonnull align 8 dereferenceable(32) %this) unnamed_addr #4 comdat align 2 personality ptr @__gxx_personality_v0 {
entry:
  %this.addr = alloca ptr, align 8
  store ptr %this, ptr %this.addr, align 8
  %this1 = load ptr, ptr %this.addr, align 8
  %0 = load ptr, ptr @_ZN8rational13g_mpq_managerE, align 8
  %m_val = getelementptr inbounds %class.rational, ptr %this1, i32 0, i32 0
  invoke void @_ZN11mpq_managerILb1EE3delEPS0_R3mpq(ptr noundef %0, ptr noundef nonnull align 8 dereferenceable(32) %m_val)
          to label %invoke.cont unwind label %terminate.lpad

invoke.cont:                                      ; preds = %entry
  ret void

terminate.lpad:                                   ; preds = %entry
  %1 = landingpad { ptr, i32 }
          catch ptr null
  %2 = extractvalue { ptr, i32 } %1, 0
  call void @__clang_call_terminate(ptr %2) #14
  unreachable
}

; Function Attrs: mustprogress uwtable
define linkonce_odr hidden noundef zeroext i1 @_ZNK8rational7is_zeroEv(ptr noundef nonnull align 8 dereferenceable(32) %this) #5 comdat align 2 {
entry:
  %this.addr = alloca ptr, align 8
  store ptr %this, ptr %this.addr, align 8
  %this1 = load ptr, ptr %this.addr, align 8
  %call = call noundef nonnull align 8 dereferenceable(728) ptr @_ZN8rational1mEv()
  %m_val = getelementptr inbounds %class.rational, ptr %this1, i32 0, i32 0
  %call2 = call noundef zeroext i1 @_ZN11mpq_managerILb1EE7is_zeroERK3mpq(ptr noundef nonnull align 8 dereferenceable(32) %m_val)
  ret i1 %call2
}

; Function Attrs: mustprogress nounwind uwtable
define linkonce_odr hidden noundef ptr @_ZNK6vectorIjLb0EjE3endEv(ptr noundef nonnull align 8 dereferenceable(8) %this) #4 comdat align 2 {
entry:
  %this.addr = alloca ptr, align 8
  store ptr %this, ptr %this.addr, align 8
  %this1 = load ptr, ptr %this.addr, align 8
  %m_data = getelementptr inbounds %class.vector.16, ptr %this1, i32 0, i32 0
  %0 = load ptr, ptr %m_data, align 8
  %call = call noundef i32 @_ZNK6vectorIjLb0EjE4sizeEv(ptr noundef nonnull align 8 dereferenceable(8) %this1)
  %idx.ext = zext i32 %call to i64
  %add.ptr = getelementptr inbounds i32, ptr %0, i64 %idx.ext
  ret ptr %add.ptr
}

; Function Attrs: mustprogress nounwind uwtable
define linkonce_odr hidden noundef ptr @_ZNK6vectorIjLb0EjE5beginEv(ptr noundef nonnull align 8 dereferenceable(8) %this) #4 comdat align 2 {
entry:
  %this.addr = alloca ptr, align 8
  store ptr %this, ptr %this.addr, align 8
  %this1 = load ptr, ptr %this.addr, align 8
  %m_data = getelementptr inbounds %class.vector.16, ptr %this1, i32 0, i32 0
  %0 = load ptr, ptr %m_data, align 8
  ret ptr %0
}

; Function Attrs: mustprogress nounwind uwtable
define linkonce_odr hidden noundef nonnull align 8 dereferenceable(8) ptr @_ZNK3nla6mon_eq4varsEv(ptr noundef nonnull align 8 dereferenceable(16) %this) #4 comdat align 2 {
entry:
  %this.addr = alloca ptr, align 8
  store ptr %this, ptr %this.addr, align 8
  %this1 = load ptr, ptr %this.addr, align 8
  %m_vs = getelementptr inbounds %"class.nla::mon_eq", ptr %this1, i32 0, i32 1
  ret ptr %m_vs
}

; Function Attrs: mustprogress uwtable
define hidden noundef i32 @_ZNK3nla6basics14find_best_zeroERKNS_5monicER7svectorIjjE(ptr noundef nonnull align 8 dereferenceable(184) %this, ptr noundef nonnull align 8 dereferenceable(34) %m, ptr noundef nonnull align 8 dereferenceable(8) %fixed_zeros) #5 align 2 personality ptr @__gxx_personality_v0 {
entry:
  %this.addr = alloca ptr, align 8
  %m.addr = alloca ptr, align 8
  %fixed_zeros.addr = alloca ptr, align 8
  %zero_j = alloca i32, align 4
  %__range1 = alloca ptr, align 8
  %__begin1 = alloca ptr, align 8
  %__end1 = alloca ptr, align 8
  %j = alloca i32, align 4
  %ref.tmp = alloca %class.rational, align 8
  %exn.slot = alloca ptr, align 8
  %ehselector.slot = alloca i32, align 4
  store ptr %this, ptr %this.addr, align 8
  store ptr %m, ptr %m.addr, align 8
  store ptr %fixed_zeros, ptr %fixed_zeros.addr, align 8
  %this1 = load ptr, ptr %this.addr, align 8
  store i32 -1, ptr %zero_j, align 4
  %0 = load ptr, ptr %m.addr, align 8
  %call = call noundef nonnull align 8 dereferenceable(8) ptr @_ZNK3nla6mon_eq4varsEv(ptr noundef nonnull align 8 dereferenceable(16) %0)
  store ptr %call, ptr %__range1, align 8
  %1 = load ptr, ptr %__range1, align 8
  %call2 = call noundef ptr @_ZNK6vectorIjLb0EjE5beginEv(ptr noundef nonnull align 8 dereferenceable(8) %1)
  store ptr %call2, ptr %__begin1, align 8
  %2 = load ptr, ptr %__range1, align 8
  %call3 = call noundef ptr @_ZNK6vectorIjLb0EjE3endEv(ptr noundef nonnull align 8 dereferenceable(8) %2)
  store ptr %call3, ptr %__end1, align 8
  br label %for.cond

for.cond:                                         ; preds = %for.inc, %entry
  %3 = load ptr, ptr %__begin1, align 8
  %4 = load ptr, ptr %__end1, align 8
  %cmp = icmp ne ptr %3, %4
  br i1 %cmp, label %for.body, label %for.end

for.body:                                         ; preds = %for.cond
  %5 = load ptr, ptr %__begin1, align 8
  %6 = load i32, ptr %5, align 4
  store i32 %6, ptr %j, align 4
  %7 = load i32, ptr %j, align 4
  call void @_ZNK3nla6common3valEj(ptr sret(%class.rational) align 8 %ref.tmp, ptr noundef nonnull align 8 dereferenceable(184) %this1, i32 noundef %7)
  %call4 = invoke noundef zeroext i1 @_ZNK8rational7is_zeroEv(ptr noundef nonnull align 8 dereferenceable(32) %ref.tmp)
          to label %invoke.cont unwind label %lpad

invoke.cont:                                      ; preds = %for.body
  call void @_ZN8rationalD2Ev(ptr noundef nonnull align 8 dereferenceable(32) %ref.tmp) #3
  br i1 %call4, label %if.then, label %if.end14

if.then:                                          ; preds = %invoke.cont
  %call5 = call noundef nonnull align 8 dereferenceable(4720) ptr @_ZNK3nla6common1cEv(ptr noundef nonnull align 8 dereferenceable(184) %this1)
  %8 = load i32, ptr %j, align 4
  %call6 = call noundef zeroext i1 @_ZNK3nla4core20var_is_fixed_to_zeroEj(ptr noundef nonnull align 8 dereferenceable(4720) %call5, i32 noundef %8)
  br i1 %call6, label %if.then7, label %if.end

if.then7:                                         ; preds = %if.then
  %9 = load ptr, ptr %fixed_zeros.addr, align 8
  %call8 = call noundef nonnull align 8 dereferenceable(8) ptr @_ZN6vectorIjLb0EjE9push_backERKj(ptr noundef nonnull align 8 dereferenceable(8) %9, ptr noundef nonnull align 4 dereferenceable(4) %j)
  br label %if.end

lpad:                                             ; preds = %for.body
  %10 = landingpad { ptr, i32 }
          cleanup
  %11 = extractvalue { ptr, i32 } %10, 0
  store ptr %11, ptr %exn.slot, align 8
  %12 = extractvalue { ptr, i32 } %10, 1
  store i32 %12, ptr %ehselector.slot, align 4
  call void @_ZN8rationalD2Ev(ptr noundef nonnull align 8 dereferenceable(32) %ref.tmp) #3
  br label %eh.resume

if.end:                                           ; preds = %if.then7, %if.then
  %13 = load i32, ptr %zero_j, align 4
  %call9 = call noundef zeroext i1 @_ZN3nla6is_setEj(i32 noundef %13)
  br i1 %call9, label %lor.lhs.false, label %if.then12

lor.lhs.false:                                    ; preds = %if.end
  %call10 = call noundef nonnull align 8 dereferenceable(4720) ptr @_ZNK3nla6common1cEv(ptr noundef nonnull align 8 dereferenceable(184) %this1)
  %14 = load i32, ptr %j, align 4
  %call11 = call noundef zeroext i1 @_ZNK3nla4core32zero_is_an_inner_point_of_boundsEj(ptr noundef nonnull align 8 dereferenceable(4720) %call10, i32 noundef %14)
  br i1 %call11, label %if.then12, label %if.end13

if.then12:                                        ; preds = %lor.lhs.false, %if.end
  %15 = load i32, ptr %j, align 4
  store i32 %15, ptr %zero_j, align 4
  br label %if.end13

if.end13:                                         ; preds = %if.then12, %lor.lhs.false
  br label %if.end14

if.end14:                                         ; preds = %if.end13, %invoke.cont
  br label %for.inc

for.inc:                                          ; preds = %if.end14
  %16 = load ptr, ptr %__begin1, align 8
  %incdec.ptr = getelementptr inbounds i32, ptr %16, i32 1
  store ptr %incdec.ptr, ptr %__begin1, align 8
  br label %for.cond

for.end:                                          ; preds = %for.cond
  %17 = load i32, ptr %zero_j, align 4
  ret i32 %17

eh.resume:                                        ; preds = %lpad
  %exn = load ptr, ptr %exn.slot, align 8
  %sel = load i32, ptr %ehselector.slot, align 4
  %lpad.val = insertvalue { ptr, i32 } poison, ptr %exn, 0
  %lpad.val15 = insertvalue { ptr, i32 } %lpad.val, i32 %sel, 1
  resume { ptr, i32 } %lpad.val15
}