; Function Attrs: mustprogress uwtable
define hidden noundef i32 @_ZNK3nla6basics14find_best_zeroERKNS_5monicER7svectorIjjE(ptr noundef nonnull align 8 dereferenceable(184) %this, ptr nocapture noundef nonnull readonly align 8 dereferenceable(34) %m, ptr noundef nonnull align 8 dereferenceable(8) %fixed_zeros) local_unnamed_addr #3 align 2 personality ptr @__gxx_personality_v0 {
entry:
  %ref.tmp = alloca %class.rational, align 8
  %m_vs.i = getelementptr inbounds i8, ptr %m, i64 8
  %0 = load ptr, ptr %m_vs.i, align 8
  %cmp.i.i = icmp eq ptr %0, null
  br i1 %cmp.i.i, label %for.end, label %_ZNK6vectorIjLb0EjE3endEv.exit

_ZNK6vectorIjLb0EjE3endEv.exit:                   ; preds = %entry
  %arrayidx.i.i = getelementptr inbounds i8, ptr %0, i64 -4
  %1 = load i32, ptr %arrayidx.i.i, align 4
  %2 = zext i32 %1 to i64
  %add.ptr.i = getelementptr inbounds i32, ptr %0, i64 %2
  %cmp.not11 = icmp eq i32 %1, 0
  br i1 %cmp.not11, label %for.end, label %invoke.cont.lr.ph

invoke.cont.lr.ph:                                ; preds = %_ZNK6vectorIjLb0EjE3endEv.exit
  %m_den.i.i = getelementptr inbounds i8, ptr %ref.tmp, i64 16
  br label %invoke.cont

invoke.cont:                                      ; preds = %invoke.cont.lr.ph, %for.inc
  %zero_j.013 = phi i32 [ -1, %invoke.cont.lr.ph ], [ %zero_j.1, %for.inc ]
  %__begin1.012 = phi ptr [ %0, %invoke.cont.lr.ph ], [ %incdec.ptr, %for.inc ]
  %3 = load i32, ptr %__begin1.012, align 4
  call void @_ZNK3nla6common3valEj(ptr nonnull sret(%class.rational) align 8 %ref.tmp, ptr noundef nonnull align 8 dereferenceable(184) %this, i32 noundef %3)
  %4 = load i32, ptr %ref.tmp, align 8
  %cmp.i.i.i.i = icmp eq i32 %4, 0
  %5 = load ptr, ptr @_ZN8rational13g_mpq_managerE, align 8
  invoke void @_ZN11mpz_managerILb1EE3delEPS0_R3mpz(ptr noundef %5, ptr noundef nonnull align 8 dereferenceable(16) %ref.tmp)
          to label %.noexc.i unwind label %terminate.lpad.i

.noexc.i:                                         ; preds = %invoke.cont
  invoke void @_ZN11mpz_managerILb1EE3delEPS0_R3mpz(ptr noundef %5, ptr noundef nonnull align 8 dereferenceable(16) %m_den.i.i)
          to label %_ZN8rationalD2Ev.exit unwind label %terminate.lpad.i

terminate.lpad.i:                                 ; preds = %.noexc.i, %invoke.cont
  %6 = landingpad { ptr, i32 }
          catch ptr null
  %7 = extractvalue { ptr, i32 } %6, 0
  call void @__clang_call_terminate(ptr %7) #16
  unreachable

_ZN8rationalD2Ev.exit:                            ; preds = %.noexc.i
  br i1 %cmp.i.i.i.i, label %if.then, label %for.inc

if.then:                                          ; preds = %_ZN8rationalD2Ev.exit
  %8 = load ptr, ptr %this, align 8
  %call6 = call noundef zeroext i1 @_ZNK3nla4core20var_is_fixed_to_zeroEj(ptr noundef nonnull align 8 dereferenceable(4720) %8, i32 noundef %3)
  br i1 %call6, label %if.then7, label %if.end

if.then7:                                         ; preds = %if.then
  %9 = load ptr, ptr %fixed_zeros, align 8
  %cmp.i = icmp eq ptr %9, null
  br i1 %cmp.i, label %if.then.i, label %lor.lhs.false.i

lor.lhs.false.i:                                  ; preds = %if.then7
  %arrayidx.i = getelementptr inbounds i8, ptr %9, i64 -4
  %10 = load i32, ptr %arrayidx.i, align 4
  %arrayidx4.i = getelementptr inbounds i8, ptr %9, i64 -8
  %11 = load i32, ptr %arrayidx4.i, align 4
  %cmp5.i = icmp eq i32 %10, %11
  br i1 %cmp5.i, label %if.then.i, label %_ZN6vectorIjLb0EjE9push_backERKj.exit

if.then.i:                                        ; preds = %lor.lhs.false.i, %if.then7
  call void @_ZN6vectorIjLb0EjE13expand_vectorEv(ptr noundef nonnull align 8 dereferenceable(8) %fixed_zeros)
  %.pre.i = load ptr, ptr %fixed_zeros, align 8
  %arrayidx8.phi.trans.insert.i = getelementptr inbounds i8, ptr %.pre.i, i64 -4
  %.pre1.i = load i32, ptr %arrayidx8.phi.trans.insert.i, align 4
  br label %_ZN6vectorIjLb0EjE9push_backERKj.exit

_ZN6vectorIjLb0EjE9push_backERKj.exit:            ; preds = %lor.lhs.false.i, %if.then.i
  %12 = phi i32 [ %.pre1.i, %if.then.i ], [ %10, %lor.lhs.false.i ]
  %13 = phi ptr [ %.pre.i, %if.then.i ], [ %9, %lor.lhs.false.i ]
  %idx.ext.i = zext i32 %12 to i64
  %add.ptr.i5 = getelementptr inbounds i32, ptr %13, i64 %idx.ext.i
  store i32 %3, ptr %add.ptr.i5, align 4
  %14 = load ptr, ptr %fixed_zeros, align 8
  %arrayidx10.i = getelementptr inbounds i8, ptr %14, i64 -4
  %15 = load i32, ptr %arrayidx10.i, align 4
  %inc.i = add i32 %15, 1
  store i32 %inc.i, ptr %arrayidx10.i, align 4
  br label %if.end

if.end:                                           ; preds = %_ZN6vectorIjLb0EjE9push_backERKj.exit, %if.then
  %cmp.i6.not = icmp eq i32 %zero_j.013, -1
  br i1 %cmp.i6.not, label %if.then12, label %lor.lhs.false

lor.lhs.false:                                    ; preds = %if.end
  %16 = load ptr, ptr %this, align 8
  %call11 = call noundef zeroext i1 @_ZNK3nla4core32zero_is_an_inner_point_of_boundsEj(ptr noundef nonnull align 8 dereferenceable(4720) %16, i32 noundef %3)
  br i1 %call11, label %if.then12, label %for.inc

if.then12:                                        ; preds = %lor.lhs.false, %if.end
  br label %for.inc

for.inc:                                          ; preds = %_ZN8rationalD2Ev.exit, %if.then12, %lor.lhs.false
  %zero_j.1 = phi i32 [ %3, %if.then12 ], [ %zero_j.013, %lor.lhs.false ], [ %zero_j.013, %_ZN8rationalD2Ev.exit ]
  %incdec.ptr = getelementptr inbounds i8, ptr %__begin1.012, i64 4
  %cmp.not = icmp eq ptr %incdec.ptr, %add.ptr.i
  br i1 %cmp.not, label %for.end, label %invoke.cont

for.end:                                          ; preds = %for.inc, %entry, %_ZNK6vectorIjLb0EjE3endEv.exit
  %zero_j.0.lcssa = phi i32 [ -1, %_ZNK6vectorIjLb0EjE3endEv.exit ], [ -1, %entry ], [ %zero_j.1, %for.inc ]
  ret i32 %zero_j.0.lcssa
}